target datalayout = "e-m:e-p270:32:32-p271:32:32-p272:64:64-i64:64-i128:128-f80:128-n8:16:32:64-S128"
target triple = "x86_64-pc-linux-gnu"

%struct.FT_ListRec_ = type { ptr, ptr }
%struct.FT_FaceRec_ = type { i64, i64, i64, i64, i64, ptr, ptr, i32, ptr, i32, ptr, %struct.FT_Generic_, %struct.FT_BBox_, i16, i16, i16, i16, i16, i16, i16, i16, ptr, ptr, ptr, ptr, ptr, ptr, %struct.FT_ListRec_, %struct.FT_Generic_, ptr, ptr }
%struct.FT_BBox_ = type { i64, i64, i64, i64 }
%struct.FT_Generic_ = type { ptr, ptr }
%struct.TT_FaceRec_ = type { %struct.FT_FaceRec_, %struct.TTC_HeaderRec_, i64, i16, ptr, %struct.TT_Header_, %struct.TT_HoriHeader_, %struct.TT_MaxProfile_, i8, %struct.TT_VertHeader_, i16, %struct.TT_NameTableRec_, %struct.TT_OS2_, %struct.TT_Postscript_, ptr, i64, ptr, ptr, ptr, ptr, ptr, ptr, ptr, ptr, ptr, ptr, ptr, ptr, %struct.TT_Gasp_, %struct.TT_PCLT_, i64, ptr, %struct.TT_Post_NamesRec_, %struct.FT_Palette_Data_, i16, ptr, i8, %struct.FT_Color_, i64, ptr, i64, ptr, i64, ptr, ptr, %struct.FT_Generic_, ptr, i64, i64, i8, i8, ptr, i32, ptr, i32, i32, ptr, i64, i64, i64, ptr, ptr, i64, i32, i64, ptr, ptr, i64, i32, i32, ptr, ptr, i64, i32, i32, i32, %struct.TT_BDFRec_, i64, i64, i64, i64, ptr, ptr, ptr }
%struct.TTC_HeaderRec_ = type { i64, i64, i64, ptr }
%struct.TT_Header_ = type { i64, i64, i64, i64, i16, i16, [2 x i64], [2 x i64], i16, i16, i16, i16, i16, i16, i16, i16, i16 }
%struct.TT_HoriHeader_ = type { i64, i16, i16, i16, i16, i16, i16, i16, i16, i16, i16, [4 x i16], i16, i16, ptr, ptr }
%struct.TT_MaxProfile_ = type { i64, i16, i16, i16, i16, i16, i16, i16, i16, i16, i16, i16, i16, i16, i16 }
%struct.TT_VertHeader_ = type { i64, i16, i16, i16, i16, i16, i16, i16, i16, i16, i16, [4 x i16], i16, i16, ptr, ptr }
%struct.TT_NameTableRec_ = type { i16, i32, i32, ptr, i32, ptr, ptr }
%struct.TT_OS2_ = type { i16, i16, i16, i16, i16, i16, i16, i16, i16, i16, i16, i16, i16, i16, i16, i16, [10 x i8], i64, i64, i64, i64, [4 x i8], i16, i16, i16, i16, i16, i16, i16, i16, i64, i64, i16, i16, i16, i16, i16, i16, i16 }
%struct.TT_Postscript_ = type { i64, i64, i16, i16, i64, i64, i64, i64, i64 }
%struct.TT_Gasp_ = type { i16, i16, ptr }
%struct.TT_PCLT_ = type { i64, i64, i16, i16, i16, i16, i16, i16, [16 x i8], [8 x i8], [6 x i8], i8, i8, i8, i8 }
%struct.TT_Post_NamesRec_ = type { i8, i16, i16, ptr, ptr }
%struct.FT_Palette_Data_ = type { i16, ptr, ptr, i16, ptr }
%struct.FT_Color_ = type { i8, i8, i8, i8 }
%struct.TT_BDFRec_ = type { ptr, ptr, ptr, i64, i32, i8 }
%struct.GX_BlendRec_ = type { i32, ptr, ptr, ptr, i64, ptr, i8, ptr, i8, i8, i32, ptr, i8, i8, i32, ptr, ptr, i32, ptr, i32, ptr, i64 }
%struct.FT_MM_Var_ = type { i32, i32, i32, ptr, ptr }
%struct.GX_DeltaSetIdxMapRec_ = type { i64, ptr, ptr }
%struct.GX_ItemVarStoreRec_ = type { i32, ptr, i16, i32, ptr }
%struct.GX_AVarTableRec_ = type { ptr, %struct.GX_ItemVarStoreRec_, %struct.GX_DeltaSetIdxMapRec_ }
%struct.GX_AVarSegmentRec_ = type { i16, ptr }
%struct.GX_HVVarTableRec_ = type { %struct.GX_ItemVarStoreRec_, %struct.GX_DeltaSetIdxMapRec_ }
%struct.GX_MVarTableRec_ = type { i16, %struct.GX_ItemVarStoreRec_, ptr }

; Function Attrs: nounwind uwtable
define internal void @tt_var_done_delta_set_index_map(ptr noundef %0, ptr noundef %1) #0 {
  %3 = alloca ptr, align 8
  %4 = alloca ptr, align 8
  %5 = alloca ptr, align 8
  store ptr %0, ptr %3, align 8
  store ptr %1, ptr %4, align 8
  %6 = load ptr, ptr %3, align 8
  %7 = getelementptr inbounds %struct.FT_FaceRec_, ptr %6, i32 0, i32 25
  %8 = load ptr, ptr %7, align 8
  store ptr %8, ptr %5, align 8
  br label %9

9:                                                ; preds = %2
  %10 = load ptr, ptr %5, align 8
  %11 = load ptr, ptr %4, align 8
  %12 = getelementptr inbounds %struct.GX_DeltaSetIdxMapRec_, ptr %11, i32 0, i32 2
  %13 = load ptr, ptr %12, align 8
  call void @ft_mem_free(ptr noundef %10, ptr noundef %13)
  %14 = load ptr, ptr %4, align 8
  %15 = getelementptr inbounds %struct.GX_DeltaSetIdxMapRec_, ptr %14, i32 0, i32 2
  store ptr null, ptr %15, align 8
  br label %16

16:                                               ; preds = %9
  br label %17

17:                                               ; preds = %16
  %18 = load ptr, ptr %5, align 8
  %19 = load ptr, ptr %4, align 8
  %20 = getelementptr inbounds %struct.GX_DeltaSetIdxMapRec_, ptr %19, i32 0, i32 1
  %21 = load ptr, ptr %20, align 8
  call void @ft_mem_free(ptr noundef %18, ptr noundef %21)
  %22 = load ptr, ptr %4, align 8
  %23 = getelementptr inbounds %struct.GX_DeltaSetIdxMapRec_, ptr %22, i32 0, i32 1
  store ptr null, ptr %23, align 8
  br label %24

24:                                               ; preds = %17
  ret void
}

; Function Attrs: nounwind uwtable
define internal void @tt_done_blend(ptr noundef %0) #0 {
  %2 = alloca ptr, align 8
  %3 = alloca ptr, align 8
  %4 = alloca ptr, align 8
  %5 = alloca ptr, align 8
  %6 = alloca i32, align 4
  %7 = alloca i32, align 4
  store ptr %0, ptr %2, align 8
  %8 = load ptr, ptr %2, align 8
  store ptr %8, ptr %3, align 8
  %9 = load ptr, ptr %2, align 8
  %10 = getelementptr inbounds %struct.FT_FaceRec_, ptr %9, i32 0, i32 25
  %11 = load ptr, ptr %10, align 8
  store ptr %11, ptr %4, align 8
  %12 = load ptr, ptr %3, align 8
  %13 = getelementptr inbounds %struct.TT_FaceRec_, ptr %12, i32 0, i32 51
  %14 = load ptr, ptr %13, align 8
  store ptr %14, ptr %5, align 8
  %15 = load ptr, ptr %5, align 8
  %16 = icmp ne ptr %15, null
  br i1 %16, label %17, label %229

17:                                               ; preds = %1
  %18 = load ptr, ptr %5, align 8
  %19 = getelementptr inbounds %struct.GX_BlendRec_, ptr %18, i32 0, i32 3
  %20 = load ptr, ptr %19, align 8
  %21 = getelementptr inbounds %struct.FT_MM_Var_, ptr %20, i32 0, i32 0
  %22 = load i32, ptr %21, align 8
  store i32 %22, ptr %7, align 4
  br label %23

23:                                               ; preds = %17
  %24 = load ptr, ptr %4, align 8
  %25 = load ptr, ptr %5, align 8
  %26 = getelementptr inbounds %struct.GX_BlendRec_, ptr %25, i32 0, i32 1
  %27 = load ptr, ptr %26, align 8
  call void @ft_mem_free(ptr noundef %24, ptr noundef %27)
  %28 = load ptr, ptr %5, align 8
  %29 = getelementptr inbounds %struct.GX_BlendRec_, ptr %28, i32 0, i32 1
  store ptr null, ptr %29, align 8
  br label %30

30:                                               ; preds = %23
  br label %31

31:                                               ; preds = %30
  %32 = load ptr, ptr %4, align 8
  %33 = load ptr, ptr %5, align 8
  %34 = getelementptr inbounds %struct.GX_BlendRec_, ptr %33, i32 0, i32 2
  %35 = load ptr, ptr %34, align 8
  call void @ft_mem_free(ptr noundef %32, ptr noundef %35)
  %36 = load ptr, ptr %5, align 8
  %37 = getelementptr inbounds %struct.GX_BlendRec_, ptr %36, i32 0, i32 2
  store ptr null, ptr %37, align 8
  br label %38

38:                                               ; preds = %31
  br label %39

39:                                               ; preds = %38
  %40 = load ptr, ptr %4, align 8
  %41 = load ptr, ptr %5, align 8
  %42 = getelementptr inbounds %struct.GX_BlendRec_, ptr %41, i32 0, i32 5
  %43 = load ptr, ptr %42, align 8
  call void @ft_mem_free(ptr noundef %40, ptr noundef %43)
  %44 = load ptr, ptr %5, align 8
  %45 = getelementptr inbounds %struct.GX_BlendRec_, ptr %44, i32 0, i32 5
  store ptr null, ptr %45, align 8
  br label %46

46:                                               ; preds = %39
  br label %47

47:                                               ; preds = %46
  %48 = load ptr, ptr %4, align 8
  %49 = load ptr, ptr %5, align 8
  %50 = getelementptr inbounds %struct.GX_BlendRec_, ptr %49, i32 0, i32 3
  %51 = load ptr, ptr %50, align 8
  call void @ft_mem_free(ptr noundef %48, ptr noundef %51)
  %52 = load ptr, ptr %5, align 8
  %53 = getelementptr inbounds %struct.GX_BlendRec_, ptr %52, i32 0, i32 3
  store ptr null, ptr %53, align 8
  br label %54

54:                                               ; preds = %47
  %55 = load ptr, ptr %5, align 8
  %56 = getelementptr inbounds %struct.GX_BlendRec_, ptr %55, i32 0, i32 7
  %57 = load ptr, ptr %56, align 8
  %58 = icmp ne ptr %57, null
  br i1 %58, label %59, label %129

59:                                               ; preds = %54
  %60 = load ptr, ptr %5, align 8
  %61 = getelementptr inbounds %struct.GX_BlendRec_, ptr %60, i32 0, i32 7
  %62 = load ptr, ptr %61, align 8
  %63 = getelementptr inbounds %struct.GX_AVarTableRec_, ptr %62, i32 0, i32 0
  %64 = load ptr, ptr %63, align 8
  %65 = icmp ne ptr %64, null
  br i1 %65, label %66, label %110

66:                                               ; preds = %59
  store i32 0, ptr %6, align 4
  br label %67

67:                                               ; preds = %94, %66
  %68 = load i32, ptr %6, align 4
  %69 = load i32, ptr %7, align 4
  %70 = icmp ult i32 %68, %69
  br i1 %70, label %71, label %97

71:                                               ; preds = %67
  br label %72

72:                                               ; preds = %71
  %73 = load ptr, ptr %4, align 8
  %74 = load ptr, ptr %5, align 8
  %75 = getelementptr inbounds %struct.GX_BlendRec_, ptr %74, i32 0, i32 7
  %76 = load ptr, ptr %75, align 8
  %77 = getelementptr inbounds %struct.GX_AVarTableRec_, ptr %76, i32 0, i32 0
  %78 = load ptr, ptr %77, align 8
  %79 = load i32, ptr %6, align 4
  %80 = zext i32 %79 to i64
  %81 = getelementptr inbounds %struct.GX_AVarSegmentRec_, ptr %78, i64 %80
  %82 = getelementptr inbounds %struct.GX_AVarSegmentRec_, ptr %81, i32 0, i32 1
  %83 = load ptr, ptr %82, align 8
  call void @ft_mem_free(ptr noundef %73, ptr noundef %83)
  %84 = load ptr, ptr %5, align 8
  %85 = getelementptr inbounds %struct.GX_BlendRec_, ptr %84, i32 0, i32 7
  %86 = load ptr, ptr %85, align 8
  %87 = getelementptr inbounds %struct.GX_AVarTableRec_, ptr %86, i32 0, i32 0
  %88 = load ptr, ptr %87, align 8
  %89 = load i32, ptr %6, align 4
  %90 = zext i32 %89 to i64
  %91 = getelementptr inbounds %struct.GX_AVarSegmentRec_, ptr %88, i64 %90
  %92 = getelementptr inbounds %struct.GX_AVarSegmentRec_, ptr %91, i32 0, i32 1
  store ptr null, ptr %92, align 8
  br label %93

93:                                               ; preds = %72
  br label %94

94:                                               ; preds = %93
  %95 = load i32, ptr %6, align 4
  %96 = add i32 %95, 1
  store i32 %96, ptr %6, align 4
  br label %67, !llvm.loop !71

97:                                               ; preds = %67
  br label %98

98:                                               ; preds = %97
  %99 = load ptr, ptr %4, align 8
  %100 = load ptr, ptr %5, align 8
  %101 = getelementptr inbounds %struct.GX_BlendRec_, ptr %100, i32 0, i32 7
  %102 = load ptr, ptr %101, align 8
  %103 = getelementptr inbounds %struct.GX_AVarTableRec_, ptr %102, i32 0, i32 0
  %104 = load ptr, ptr %103, align 8
  call void @ft_mem_free(ptr noundef %99, ptr noundef %104)
  %105 = load ptr, ptr %5, align 8
  %106 = getelementptr inbounds %struct.GX_BlendRec_, ptr %105, i32 0, i32 7
  %107 = load ptr, ptr %106, align 8
  %108 = getelementptr inbounds %struct.GX_AVarTableRec_, ptr %107, i32 0, i32 0
  store ptr null, ptr %108, align 8
  br label %109

109:                                              ; preds = %98
  br label %110

110:                                              ; preds = %109, %59
  %111 = load ptr, ptr %2, align 8
  %112 = load ptr, ptr %5, align 8
  %113 = getelementptr inbounds %struct.GX_BlendRec_, ptr %112, i32 0, i32 7
  %114 = load ptr, ptr %113, align 8
  %115 = getelementptr inbounds %struct.GX_AVarTableRec_, ptr %114, i32 0, i32 1
  call void @tt_var_done_item_variation_store(ptr noundef %111, ptr noundef %115)
  %116 = load ptr, ptr %2, align 8
  %117 = load ptr, ptr %5, align 8
  %118 = getelementptr inbounds %struct.GX_BlendRec_, ptr %117, i32 0, i32 7
  %119 = load ptr, ptr %118, align 8
  %120 = getelementptr inbounds %struct.GX_AVarTableRec_, ptr %119, i32 0, i32 2
  call void @tt_var_done_delta_set_index_map(ptr noundef %116, ptr noundef %120)
  br label %121

121:                                              ; preds = %110
  %122 = load ptr, ptr %4, align 8
  %123 = load ptr, ptr %5, align 8
  %124 = getelementptr inbounds %struct.GX_BlendRec_, ptr %123, i32 0, i32 7
  %125 = load ptr, ptr %124, align 8
  call void @ft_mem_free(ptr noundef %122, ptr noundef %125)
  %126 = load ptr, ptr %5, align 8
  %127 = getelementptr inbounds %struct.GX_BlendRec_, ptr %126, i32 0, i32 7
  store ptr null, ptr %127, align 8
  br label %128

128:                                              ; preds = %121
  br label %129

129:                                              ; preds = %128, %54
  %130 = load ptr, ptr %5, align 8
  %131 = getelementptr inbounds %struct.GX_BlendRec_, ptr %130, i32 0, i32 11
  %132 = load ptr, ptr %131, align 8
  %133 = icmp ne ptr %132, null
  br i1 %133, label %134, label %153

134:                                              ; preds = %129
  %135 = load ptr, ptr %2, align 8
  %136 = load ptr, ptr %5, align 8
  %137 = getelementptr inbounds %struct.GX_BlendRec_, ptr %136, i32 0, i32 11
  %138 = load ptr, ptr %137, align 8
  %139 = getelementptr inbounds %struct.GX_HVVarTableRec_, ptr %138, i32 0, i32 0
  call void @tt_var_done_item_variation_store(ptr noundef %135, ptr noundef %139)
  %140 = load ptr, ptr %2, align 8
  %141 = load ptr, ptr %5, align 8
  %142 = getelementptr inbounds %struct.GX_BlendRec_, ptr %141, i32 0, i32 11
  %143 = load ptr, ptr %142, align 8
  %144 = getelementptr inbounds %struct.GX_HVVarTableRec_, ptr %143, i32 0, i32 1
  call void @tt_var_done_delta_set_index_map(ptr noundef %140, ptr noundef %144)
  br label %145

145:                                              ; preds = %134
  %146 = load ptr, ptr %4, align 8
  %147 = load ptr, ptr %5, align 8
  %148 = getelementptr inbounds %struct.GX_BlendRec_, ptr %147, i32 0, i32 11
  %149 = load ptr, ptr %148, align 8
  call void @ft_mem_free(ptr noundef %146, ptr noundef %149)
  %150 = load ptr, ptr %5, align 8
  %151 = getelementptr inbounds %struct.GX_BlendRec_, ptr %150, i32 0, i32 11
  store ptr null, ptr %151, align 8
  br label %152

152:                                              ; preds = %145
  br label %153

153:                                              ; preds = %152, %129
  %154 = load ptr, ptr %5, align 8
  %155 = getelementptr inbounds %struct.GX_BlendRec_, ptr %154, i32 0, i32 15
  %156 = load ptr, ptr %155, align 8
  %157 = icmp ne ptr %156, null
  br i1 %157, label %158, label %177

158:                                              ; preds = %153
  %159 = load ptr, ptr %2, align 8
  %160 = load ptr, ptr %5, align 8
  %161 = getelementptr inbounds %struct.GX_BlendRec_, ptr %160, i32 0, i32 15
  %162 = load ptr, ptr %161, align 8
  %163 = getelementptr inbounds %struct.GX_HVVarTableRec_, ptr %162, i32 0, i32 0
  call void @tt_var_done_item_variation_store(ptr noundef %159, ptr noundef %163)
  %164 = load ptr, ptr %2, align 8
  %165 = load ptr, ptr %5, align 8
  %166 = getelementptr inbounds %struct.GX_BlendRec_, ptr %165, i32 0, i32 15
  %167 = load ptr, ptr %166, align 8
  %168 = getelementptr inbounds %struct.GX_HVVarTableRec_, ptr %167, i32 0, i32 1
  call void @tt_var_done_delta_set_index_map(ptr noundef %164, ptr noundef %168)
  br label %169

169:                                              ; preds = %158
  %170 = load ptr, ptr %4, align 8
  %171 = load ptr, ptr %5, align 8
  %172 = getelementptr inbounds %struct.GX_BlendRec_, ptr %171, i32 0, i32 15
  %173 = load ptr, ptr %172, align 8
  call void @ft_mem_free(ptr noundef %170, ptr noundef %173)
  %174 = load ptr, ptr %5, align 8
  %175 = getelementptr inbounds %struct.GX_BlendRec_, ptr %174, i32 0, i32 15
  store ptr null, ptr %175, align 8
  br label %176

176:                                              ; preds = %169
  br label %177

177:                                              ; preds = %176, %153
  %178 = load ptr, ptr %5, align 8
  %179 = getelementptr inbounds %struct.GX_BlendRec_, ptr %178, i32 0, i32 16
  %180 = load ptr, ptr %179, align 8
  %181 = icmp ne ptr %180, null
  br i1 %181, label %182, label %208

182:                                              ; preds = %177
  %183 = load ptr, ptr %2, align 8
  %184 = load ptr, ptr %5, align 8
  %185 = getelementptr inbounds %struct.GX_BlendRec_, ptr %184, i32 0, i32 16
  %186 = load ptr, ptr %185, align 8
  %187 = getelementptr inbounds %struct.GX_MVarTableRec_, ptr %186, i32 0, i32 1
  call void @tt_var_done_item_variation_store(ptr noundef %183, ptr noundef %187)
  br label %188

188:                                              ; preds = %182
  %189 = load ptr, ptr %4, align 8
  %190 = load ptr, ptr %5, align 8
  %191 = getelementptr inbounds %struct.GX_BlendRec_, ptr %190, i32 0, i32 16
  %192 = load ptr, ptr %191, align 8
  %193 = getelementptr inbounds %struct.GX_MVarTableRec_, ptr %192, i32 0, i32 2
  %194 = load ptr, ptr %193, align 8
  call void @ft_mem_free(ptr noundef %189, ptr noundef %194)
  %195 = load ptr, ptr %5, align 8
  %196 = getelementptr inbounds %struct.GX_BlendRec_, ptr %195, i32 0, i32 16
  %197 = load ptr, ptr %196, align 8
  %198 = getelementptr inbounds %struct.GX_MVarTableRec_, ptr %197, i32 0, i32 2
  store ptr null, ptr %198, align 8
  br label %199

199:                                              ; preds = %188
  br label %200

200:                                              ; preds = %199
  %201 = load ptr, ptr %4, align 8
  %202 = load ptr, ptr %5, align 8
  %203 = getelementptr inbounds %struct.GX_BlendRec_, ptr %202, i32 0, i32 16
  %204 = load ptr, ptr %203, align 8
  call void @ft_mem_free(ptr noundef %201, ptr noundef %204)
  %205 = load ptr, ptr %5, align 8
  %206 = getelementptr inbounds %struct.GX_BlendRec_, ptr %205, i32 0, i32 16
  store ptr null, ptr %206, align 8
  br label %207

207:                                              ; preds = %200
  br label %208

208:                                              ; preds = %207, %177
  br label %209

209:                                              ; preds = %208
  %210 = load ptr, ptr %4, align 8
  %211 = load ptr, ptr %5, align 8
  %212 = getelementptr inbounds %struct.GX_BlendRec_, ptr %211, i32 0, i32 18
  %213 = load ptr, ptr %212, align 8
  call void @ft_mem_free(ptr noundef %210, ptr noundef %213)
  %214 = load ptr, ptr %5, align 8
  %215 = getelementptr inbounds %struct.GX_BlendRec_, ptr %214, i32 0, i32 18
  store ptr null, ptr %215, align 8
  br label %216

216:                                              ; preds = %209
  br label %217

217:                                              ; preds = %216
  %218 = load ptr, ptr %4, align 8
  %219 = load ptr, ptr %5, align 8
  %220 = getelementptr inbounds %struct.GX_BlendRec_, ptr %219, i32 0, i32 20
  %221 = load ptr, ptr %220, align 8
  call void @ft_mem_free(ptr noundef %218, ptr noundef %221)
  %222 = load ptr, ptr %5, align 8
  %223 = getelementptr inbounds %struct.GX_BlendRec_, ptr %222, i32 0, i32 20
  store ptr null, ptr %223, align 8
  br label %224

224:                                              ; preds = %217
  br label %225

225:                                              ; preds = %224
  %226 = load ptr, ptr %4, align 8
  %227 = load ptr, ptr %5, align 8
  call void @ft_mem_free(ptr noundef %226, ptr noundef %227)
  store ptr null, ptr %5, align 8
  br label %228

228:                                              ; preds = %225
  br label %229

229:                                              ; preds = %228, %1
  ret void
}