; Function Attrs: nounwind uwtable
define internal void @tt_done_blend(ptr nocapture noundef readonly %0) #2 {
  %2 = getelementptr inbounds i8, ptr %0, i64 184
  %3 = load ptr, ptr %2, align 8
  %4 = getelementptr inbounds i8, ptr %0, i64 1216
  %5 = load ptr, ptr %4, align 8
  %.not = icmp eq ptr %5, null
  br i1 %.not, label %78, label %6

6:                                                ; preds = %1
  %7 = getelementptr inbounds i8, ptr %5, i64 24
  %8 = load ptr, ptr %7, align 8
  %9 = load i32, ptr %8, align 8
  %10 = getelementptr inbounds i8, ptr %5, i64 8
  %11 = load ptr, ptr %10, align 8
  tail call void @ft_mem_free(ptr noundef %3, ptr noundef %11) #22
  store ptr null, ptr %10, align 8
  %12 = getelementptr inbounds i8, ptr %5, i64 16
  %13 = load ptr, ptr %12, align 8
  tail call void @ft_mem_free(ptr noundef %3, ptr noundef %13) #22
  store ptr null, ptr %12, align 8
  %14 = getelementptr inbounds i8, ptr %5, i64 40
  %15 = load ptr, ptr %14, align 8
  tail call void @ft_mem_free(ptr noundef %3, ptr noundef %15) #22
  store ptr null, ptr %14, align 8
  %16 = load ptr, ptr %7, align 8
  tail call void @ft_mem_free(ptr noundef %3, ptr noundef %16) #22
  store ptr null, ptr %7, align 8
  %17 = getelementptr inbounds i8, ptr %5, i64 56
  %18 = load ptr, ptr %17, align 8
  %.not74 = icmp eq ptr %18, null
  br i1 %.not74, label %40, label %19

19:                                               ; preds = %6
  %20 = load ptr, ptr %18, align 8
  %.not75 = icmp eq ptr %20, null
  br i1 %.not75, label %30, label %.preheader

.preheader:                                       ; preds = %19
  %.not80 = icmp eq i32 %9, 0
  br i1 %.not80, label %._crit_edge, label %.lr.ph.preheader

.lr.ph.preheader:                                 ; preds = %.preheader
  %wide.trip.count = zext i32 %9 to i64
  br label %.lr.ph

.lr.ph:                                           ; preds = %.lr.ph.preheader, %.lr.ph
  %indvars.iv = phi i64 [ 0, %.lr.ph.preheader ], [ %indvars.iv.next, %.lr.ph ]
  %21 = load ptr, ptr %17, align 8
  %22 = load ptr, ptr %21, align 8
  %23 = getelementptr inbounds %struct.GX_AVarSegmentRec_, ptr %22, i64 %indvars.iv, i32 1
  %24 = load ptr, ptr %23, align 8
  tail call void @ft_mem_free(ptr noundef %3, ptr noundef %24) #22
  %25 = load ptr, ptr %17, align 8
  %26 = load ptr, ptr %25, align 8
  %27 = getelementptr inbounds %struct.GX_AVarSegmentRec_, ptr %26, i64 %indvars.iv, i32 1
  store ptr null, ptr %27, align 8
  %indvars.iv.next = add nuw nsw i64 %indvars.iv, 1
  %exitcond.not = icmp eq i64 %indvars.iv.next, %wide.trip.count
  br i1 %exitcond.not, label %._crit_edge.loopexit, label %.lr.ph, !llvm.loop !72

._crit_edge.loopexit:                             ; preds = %.lr.ph
  %.pre = load ptr, ptr %17, align 8
  %.pre82 = load ptr, ptr %.pre, align 8
  br label %._crit_edge

._crit_edge:                                      ; preds = %._crit_edge.loopexit, %.preheader
  %28 = phi ptr [ %.pre82, %._crit_edge.loopexit ], [ %20, %.preheader ]
  tail call void @ft_mem_free(ptr noundef %3, ptr noundef %28) #22
  %29 = load ptr, ptr %17, align 8
  store ptr null, ptr %29, align 8
  %.pre83 = load ptr, ptr %17, align 8
  br label %30

30:                                               ; preds = %._crit_edge, %19
  %31 = phi ptr [ %.pre83, %._crit_edge ], [ %18, %19 ]
  %32 = getelementptr inbounds i8, ptr %31, i64 8
  tail call void @tt_var_done_item_variation_store(ptr noundef %0, ptr noundef nonnull %32)
  %33 = load ptr, ptr %17, align 8
  %34 = load ptr, ptr %2, align 8
  %35 = getelementptr inbounds i8, ptr %33, i64 56
  %36 = load ptr, ptr %35, align 8
  tail call void @ft_mem_free(ptr noundef %34, ptr noundef %36) #22
  store ptr null, ptr %35, align 8
  %37 = getelementptr inbounds i8, ptr %33, i64 48
  %38 = load ptr, ptr %37, align 8
  tail call void @ft_mem_free(ptr noundef %34, ptr noundef %38) #22
  store ptr null, ptr %37, align 8
  %39 = load ptr, ptr %17, align 8
  tail call void @ft_mem_free(ptr noundef %3, ptr noundef %39) #22
  store ptr null, ptr %17, align 8
  br label %40

40:                                               ; preds = %30, %6
  %41 = getelementptr inbounds i8, ptr %5, i64 72
  %42 = load ptr, ptr %41, align 8
  %.not76 = icmp eq ptr %42, null
  br i1 %.not76, label %51, label %43

43:                                               ; preds = %40
  tail call void @tt_var_done_item_variation_store(ptr noundef nonnull %0, ptr noundef nonnull %42)
  %44 = load ptr, ptr %41, align 8
  %45 = load ptr, ptr %2, align 8
  %46 = getelementptr inbounds i8, ptr %44, i64 48
  %47 = load ptr, ptr %46, align 8
  tail call void @ft_mem_free(ptr noundef %45, ptr noundef %47) #22
  store ptr null, ptr %46, align 8
  %48 = getelementptr inbounds i8, ptr %44, i64 40
  %49 = load ptr, ptr %48, align 8
  tail call void @ft_mem_free(ptr noundef %45, ptr noundef %49) #22
  store ptr null, ptr %48, align 8
  %50 = load ptr, ptr %41, align 8
  tail call void @ft_mem_free(ptr noundef %3, ptr noundef %50) #22
  store ptr null, ptr %41, align 8
  br label %51

51:                                               ; preds = %43, %40
  %52 = getelementptr inbounds i8, ptr %5, i64 88
  %53 = load ptr, ptr %52, align 8
  %.not77 = icmp eq ptr %53, null
  br i1 %.not77, label %62, label %54

54:                                               ; preds = %51
  tail call void @tt_var_done_item_variation_store(ptr noundef nonnull %0, ptr noundef nonnull %53)
  %55 = load ptr, ptr %52, align 8
  %56 = load ptr, ptr %2, align 8
  %57 = getelementptr inbounds i8, ptr %55, i64 48
  %58 = load ptr, ptr %57, align 8
  tail call void @ft_mem_free(ptr noundef %56, ptr noundef %58) #22
  store ptr null, ptr %57, align 8
  %59 = getelementptr inbounds i8, ptr %55, i64 40
  %60 = load ptr, ptr %59, align 8
  tail call void @ft_mem_free(ptr noundef %56, ptr noundef %60) #22
  store ptr null, ptr %59, align 8
  %61 = load ptr, ptr %52, align 8
  tail call void @ft_mem_free(ptr noundef %3, ptr noundef %61) #22
  store ptr null, ptr %52, align 8
  br label %62

62:                                               ; preds = %54, %51
  %63 = getelementptr inbounds i8, ptr %5, i64 96
  %64 = load ptr, ptr %63, align 8
  %.not78 = icmp eq ptr %64, null
  br i1 %.not78, label %73, label %65

65:                                               ; preds = %62
  %66 = getelementptr inbounds i8, ptr %64, i64 8
  tail call void @tt_var_done_item_variation_store(ptr noundef nonnull %0, ptr noundef nonnull %66)
  %67 = load ptr, ptr %63, align 8
  %68 = getelementptr inbounds i8, ptr %67, i64 40
  %69 = load ptr, ptr %68, align 8
  tail call void @ft_mem_free(ptr noundef %3, ptr noundef %69) #22
  %70 = load ptr, ptr %63, align 8
  %71 = getelementptr inbounds i8, ptr %70, i64 40
  store ptr null, ptr %71, align 8
  %72 = load ptr, ptr %63, align 8
  tail call void @ft_mem_free(ptr noundef %3, ptr noundef %72) #22
  store ptr null, ptr %63, align 8
  br label %73

73:                                               ; preds = %62, %65
  %74 = getelementptr inbounds i8, ptr %5, i64 112
  %75 = load ptr, ptr %74, align 8
  tail call void @ft_mem_free(ptr noundef %3, ptr noundef %75) #22
  store ptr null, ptr %74, align 8
  %76 = getelementptr inbounds i8, ptr %5, i64 128
  %77 = load ptr, ptr %76, align 8
  tail call void @ft_mem_free(ptr noundef %3, ptr noundef %77) #22
  store ptr null, ptr %76, align 8
  tail call void @ft_mem_free(ptr noundef %3, ptr noundef nonnull %5) #22
  br label %78

78:                                               ; preds = %73, %1
  ret void
}